target datalayout = "e-m:e-p270:32:32-p271:32:32-p272:64:64-i64:64-i128:128-f80:128-n8:16:32:64-S128"
target triple = "x86_64-pc-linux-gnu"

%struct.mbedtls_md_context_t = type { ptr, ptr, ptr }

; Function Attrs: nounwind uwtable
define hidden i32 @mbedtls_pkcs5_pbkdf2_hmac_ext(i32 noundef %0, ptr noundef %1, i64 noundef %2, ptr noundef %3, i64 noundef %4, i32 noundef %5, i32 noundef %6, ptr noundef %7) #0 {
  %9 = alloca i32, align 4
  %10 = alloca i32, align 4
  %11 = alloca ptr, align 8
  %12 = alloca i64, align 8
  %13 = alloca ptr, align 8
  %14 = alloca i64, align 8
  %15 = alloca i32, align 4
  %16 = alloca i32, align 4
  %17 = alloca ptr, align 8
  %18 = alloca %struct.mbedtls_md_context_t, align 8
  %19 = alloca ptr, align 8
  %20 = alloca i32, align 4
  %21 = alloca i32, align 4
  store i32 %0, ptr %10, align 4, !tbaa !8
  store ptr %1, ptr %11, align 8, !tbaa !10
  store i64 %2, ptr %12, align 8, !tbaa !12
  store ptr %3, ptr %13, align 8, !tbaa !10
  store i64 %4, ptr %14, align 8, !tbaa !12
  store i32 %5, ptr %15, align 4, !tbaa !8
  store i32 %6, ptr %16, align 4, !tbaa !8
  store ptr %7, ptr %17, align 8, !tbaa !10
  call void @llvm.lifetime.start.p0(i64 24, ptr %18) #8
  call void @llvm.lifetime.start.p0(i64 8, ptr %19) #8
  store ptr null, ptr %19, align 8, !tbaa !25
  call void @llvm.lifetime.start.p0(i64 4, ptr %20) #8
  store i32 -110, ptr %20, align 4, !tbaa !8
  %22 = load i32, ptr %10, align 4, !tbaa !8
  %23 = call ptr @mbedtls_md_info_from_type(i32 noundef %22)
  store ptr %23, ptr %19, align 8, !tbaa !25
  %24 = load ptr, ptr %19, align 8, !tbaa !25
  %25 = icmp eq ptr %24, null
  br i1 %25, label %26, label %27

26:                                               ; preds = %8
  store i32 -11904, ptr %9, align 4
  store i32 1, ptr %21, align 4
  br label %43

27:                                               ; preds = %8
  call void @mbedtls_md_init(ptr noundef %18)
  %28 = load ptr, ptr %19, align 8, !tbaa !25
  %29 = call i32 @mbedtls_md_setup(ptr noundef %18, ptr noundef %28, i32 noundef 1)
  store i32 %29, ptr %20, align 4, !tbaa !8
  %30 = icmp ne i32 %29, 0
  br i1 %30, label %31, label %32

31:                                               ; preds = %27
  br label %41

32:                                               ; preds = %27
  %33 = load ptr, ptr %11, align 8, !tbaa !10
  %34 = load i64, ptr %12, align 8, !tbaa !12
  %35 = load ptr, ptr %13, align 8, !tbaa !10
  %36 = load i64, ptr %14, align 8, !tbaa !12
  %37 = load i32, ptr %15, align 4, !tbaa !8
  %38 = load i32, ptr %16, align 4, !tbaa !8
  %39 = load ptr, ptr %17, align 8, !tbaa !10
  %40 = call i32 @pkcs5_pbkdf2_hmac(ptr noundef %18, ptr noundef %33, i64 noundef %34, ptr noundef %35, i64 noundef %36, i32 noundef %37, i32 noundef %38, ptr noundef %39)
  store i32 %40, ptr %20, align 4, !tbaa !8
  br label %41

41:                                               ; preds = %32, %31
  call void @mbedtls_md_free(ptr noundef %18)
  %42 = load i32, ptr %20, align 4, !tbaa !8
  store i32 %42, ptr %9, align 4
  store i32 1, ptr %21, align 4
  br label %43

43:                                               ; preds = %41, %26
  call void @llvm.lifetime.end.p0(i64 4, ptr %20) #8
  call void @llvm.lifetime.end.p0(i64 8, ptr %19) #8
  call void @llvm.lifetime.end.p0(i64 24, ptr %18) #8
  %44 = load i32, ptr %9, align 4
  ret i32 %44
}