; Function Attrs: nounwind uwtable
define hidden i32 @mbedtls_pkcs5_pbkdf2_hmac_ext(i32 noundef %0, ptr noundef %1, i64 noundef %2, ptr noundef %3, i64 noundef %4, i32 noundef %5, i32 noundef %6, ptr noundef writeonly captures(none) %7) local_unnamed_addr #0 {
  %9 = alloca %struct.mbedtls_md_context_t, align 8
  call void @llvm.lifetime.start.p0(i64 24, ptr nonnull %9) #8
  %10 = tail call ptr @mbedtls_md_info_from_type(i32 noundef %0) #8
  %11 = icmp eq ptr %10, null
  br i1 %11, label %17, label %12

12:                                               ; preds = %8
  call void @mbedtls_md_init(ptr noundef nonnull %9) #8
  %13 = call i32 @mbedtls_md_setup(ptr noundef nonnull %9, ptr noundef nonnull %10, i32 noundef 1) #8
  %.not = icmp eq i32 %13, 0
  br i1 %.not, label %14, label %16

14:                                               ; preds = %12
  %15 = call fastcc i32 @pkcs5_pbkdf2_hmac(ptr noundef nonnull %9, ptr noundef %1, i64 noundef %2, ptr noundef %3, i64 noundef %4, i32 noundef %5, i32 noundef %6, ptr noundef %7)
  br label %16

16:                                               ; preds = %12, %14
  %.0 = phi i32 [ %13, %12 ], [ %15, %14 ]
  call void @mbedtls_md_free(ptr noundef nonnull %9) #8
  br label %17

17:                                               ; preds = %8, %16
  %.011 = phi i32 [ %.0, %16 ], [ -11904, %8 ]
  call void @llvm.lifetime.end.p0(i64 24, ptr nonnull %9) #8
  ret i32 %.011
}